; Function Attrs: mustprogress nounwind uwtable
define hidden void @_ZN15G1CollectedHeap19ref_processing_initEv(ptr noundef nonnull align 8 dereferenceable(1488) %0) local_unnamed_addr #0 align 2 {
  %2 = getelementptr inbounds i8, ptr %0, i64 1400
  %3 = getelementptr inbounds i8, ptr %0, i64 1320
  %4 = load ptr, ptr %3, align 8
  tail call void @_ZN18G1CMIsAliveClosure10initializeEP16G1ConcurrentMark(ptr noundef nonnull align 8 dereferenceable(16) %2, ptr noundef %4) #23
  %5 = tail call noundef ptr @_Z12AllocateHeapm8MEMFLAGSN17AllocFailStrategy13AllocFailEnumE(i64 noundef 88, i8 noundef zeroext 5, i32 noundef 0) #23
  %6 = getelementptr inbounds i8, ptr %0, i64 1416
  %7 = load i32, ptr @ParallelGCThreads, align 4
  %8 = load i32, ptr @ConcGCThreads, align 4
  %9 = tail call noundef i32 @llvm.umax.i32(i32 %7, i32 %8)
  tail call void @_ZN18ReferenceProcessorC1EP17BoolObjectClosurejjbS1_(ptr noundef nonnull align 8 dereferenceable(88) %5, ptr noundef nonnull %6, i32 noundef %7, i32 noundef %9, i1 noundef zeroext true, ptr noundef nonnull %2) #23
  %10 = getelementptr inbounds i8, ptr %0, i64 1392
  store ptr %5, ptr %10, align 8
  %11 = tail call noundef ptr @_Z12AllocateHeapm8MEMFLAGSN17AllocFailStrategy13AllocFailEnumE(i64 noundef 88, i8 noundef zeroext 5, i32 noundef 0) #23
  %12 = getelementptr inbounds i8, ptr %0, i64 1376
  %13 = load i32, ptr @ParallelGCThreads, align 4
  %14 = getelementptr inbounds i8, ptr %0, i64 1360
  tail call void @_ZN18ReferenceProcessorC1EP17BoolObjectClosurejjbS1_(ptr noundef nonnull align 8 dereferenceable(88) %11, ptr noundef nonnull %12, i32 noundef %13, i32 noundef %13, i1 noundef zeroext false, ptr noundef nonnull %14) #23
  %15 = getelementptr inbounds i8, ptr %0, i64 1352
  store ptr %11, ptr %15, align 8
  ret void
}